; Function Attrs: mustprogress nounwind uwtable
define hidden noundef zeroext i1 @_ZN9Relocator17expand_code_arrayEi(ptr noundef nonnull align 8 dereferenceable(72) %0, i32 noundef %1) local_unnamed_addr #0 align 2 {
  %3 = alloca %class.methodHandle, align 8
  %4 = getelementptr inbounds i8, ptr %0, i64 12
  %5 = load i32, ptr %4, align 4
  %6 = add nsw i32 %5, %1
  %7 = mul nsw i32 %5, 125
  %8 = sdiv i32 %7, 100
  %9 = tail call noundef i32 @llvm.smax.i32(i32 %6, i32 %8)
  %10 = icmp sgt i32 %9, 65535
  br i1 %10, label %11, label %14

11:                                               ; preds = %2
  %12 = icmp eq i32 %1, 0
  %13 = icmp slt i32 %5, 65536
  %or.cond = and i1 %12, %13
  br i1 %or.cond, label %14, label %32

14:                                               ; preds = %11, %2
  %.010 = phi i32 [ %9, %2 ], [ 65535, %11 ]
  %15 = sext i32 %.010 to i64
  %16 = tail call noundef ptr @_Z23resource_allocate_bytesmN17AllocFailStrategy13AllocFailEnumE(i64 noundef %15, i32 noundef 0) #10
  %.not = icmp eq ptr %16, null
  br i1 %.not, label %32, label %17

17:                                               ; preds = %14
  %18 = load ptr, ptr %0, align 8
  %.not13 = icmp eq ptr %18, null
  br i1 %.not13, label %22, label %19

19:                                               ; preds = %17
  %20 = load i32, ptr %4, align 4
  %21 = sext i32 %20 to i64
  tail call void @llvm.memcpy.p0.p0.i64(ptr nonnull align 1 %16, ptr nonnull align 1 %18, i64 %21, i1 false)
  br label %30

22:                                               ; preds = %17
  %23 = getelementptr inbounds i8, ptr %0, i64 32
  call void @_ZN12methodHandleC1ERKS_(ptr noundef nonnull align 8 dereferenceable(16) %3, ptr noundef nonnull align 8 dereferenceable(16) %23) #10
  %24 = load ptr, ptr %3, align 8
  %25 = getelementptr inbounds i8, ptr %24, i64 8
  %26 = load ptr, ptr %25, align 8
  %27 = getelementptr inbounds i8, ptr %26, i64 56
  %28 = load i32, ptr %4, align 4
  %29 = sext i32 %28 to i64
  call void @llvm.memcpy.p0.p0.i64(ptr nonnull align 1 %16, ptr nonnull align 1 %27, i64 %29, i1 false)
  call void @_ZN12methodHandleD1Ev(ptr noundef nonnull align 8 dereferenceable(16) %3) #10
  br label %30

30:                                               ; preds = %22, %19
  store ptr %16, ptr %0, align 8
  %31 = getelementptr inbounds i8, ptr %0, i64 8
  store i32 %.010, ptr %31, align 8
  br label %32

32:                                               ; preds = %14, %11, %30
  %.0 = phi i1 [ true, %30 ], [ false, %11 ], [ false, %14 ]
  ret i1 %.0
}